target datalayout = "e-m:e-p270:32:32-p271:32:32-p272:64:64-i64:64-i128:128-f80:128-n8:16:32:64-S128"
target triple = "x86_64-pc-linux-gnu"

%struct.archive_write = type { %struct.archive, i32, i64, i64, ptr, i64, ptr, ptr, ptr, ptr, ptr, i32, i32, ptr, ptr, ptr, ptr, ptr, ptr, ptr, ptr, ptr, ptr, ptr, ptr, ptr, ptr }
%struct.archive = type { i32, i32, ptr, i32, ptr, i32, i32, ptr, %struct.archive_string, ptr, i32, i32, ptr, ptr, i64, i64, i64, i8, i64 }
%struct.archive_string = type { ptr, i64, i64 }
%struct.pax = type { i64, i64, %struct.archive_string, %struct.archive_string, %struct.archive_string, i64, ptr, ptr, ptr, i32, i32 }

@.str.6 = private unnamed_addr constant [11 x i8] c"hdrcharset\00", align 1
@.str.7 = private unnamed_addr constant [50 x i8] c"pax: hdrcharset option needs a character-set name\00", align 1
@.str.8 = private unnamed_addr constant [7 x i8] c"BINARY\00", align 1
@.str.9 = private unnamed_addr constant [7 x i8] c"binary\00", align 1
@.str.10 = private unnamed_addr constant [6 x i8] c"UTF-8\00", align 1
@.str.11 = private unnamed_addr constant [26 x i8] c"pax: invalid charset name\00", align 1
@.str.12 = private unnamed_addr constant [12 x i8] c"xattrheader\00", align 1
@.str.13 = private unnamed_addr constant [34 x i8] c"pax: xattrheader requires a value\00", align 1
@.str.14 = private unnamed_addr constant [4 x i8] c"ALL\00", align 1
@.str.15 = private unnamed_addr constant [4 x i8] c"all\00", align 1
@.str.16 = private unnamed_addr constant [7 x i8] c"SCHILY\00", align 1
@.str.17 = private unnamed_addr constant [7 x i8] c"schily\00", align 1
@.str.18 = private unnamed_addr constant [11 x i8] c"LIBARCHIVE\00", align 1
@.str.19 = private unnamed_addr constant [11 x i8] c"libarchive\00", align 1
@.str.20 = private unnamed_addr constant [31 x i8] c"pax: invalid xattr header name\00", align 1

; Function Attrs: nounwind uwtable
define internal i32 @archive_write_pax_options(ptr noundef %0, ptr noundef %1, ptr noundef %2) #0 {
  %4 = alloca i32, align 4
  %5 = alloca ptr, align 8
  %6 = alloca ptr, align 8
  %7 = alloca ptr, align 8
  %8 = alloca ptr, align 8
  %9 = alloca i32, align 4
  store ptr %0, ptr %5, align 8
  store ptr %1, ptr %6, align 8
  store ptr %2, ptr %7, align 8
  %10 = load ptr, ptr %5, align 8
  %11 = getelementptr inbounds %struct.archive_write, ptr %10, i32 0, i32 15
  %12 = load ptr, ptr %11, align 8
  store ptr %12, ptr %8, align 8
  store i32 -25, ptr %9, align 4
  %13 = load ptr, ptr %6, align 8
  %14 = call i32 @strcmp(ptr noundef %13, ptr noundef @.str.6) #9
  %15 = icmp eq i32 %14, 0
  br i1 %15, label %16, label %63

16:                                               ; preds = %3
  %17 = load ptr, ptr %7, align 8
  %18 = icmp eq ptr %17, null
  br i1 %18, label %25, label %19

19:                                               ; preds = %16
  %20 = load ptr, ptr %7, align 8
  %21 = getelementptr inbounds i8, ptr %20, i64 0
  %22 = load i8, ptr %21, align 1
  %23 = sext i8 %22 to i32
  %24 = icmp eq i32 %23, 0
  br i1 %24, label %25, label %28

25:                                               ; preds = %19, %16
  %26 = load ptr, ptr %5, align 8
  %27 = getelementptr inbounds %struct.archive_write, ptr %26, i32 0, i32 0
  call void (ptr, i32, ptr, ...) @archive_set_error(ptr noundef %27, i32 noundef -1, ptr noundef @.str.7)
  br label %61

28:                                               ; preds = %19
  %29 = load ptr, ptr %7, align 8
  %30 = call i32 @strcmp(ptr noundef %29, ptr noundef @.str.8) #9
  %31 = icmp eq i32 %30, 0
  br i1 %31, label %36, label %32

32:                                               ; preds = %28
  %33 = load ptr, ptr %7, align 8
  %34 = call i32 @strcmp(ptr noundef %33, ptr noundef @.str.9) #9
  %35 = icmp eq i32 %34, 0
  br i1 %35, label %36, label %39

36:                                               ; preds = %32, %28
  %37 = load ptr, ptr %8, align 8
  %38 = getelementptr inbounds %struct.pax, ptr %37, i32 0, i32 9
  store i32 1, ptr %38, align 8
  store i32 0, ptr %9, align 4
  br label %60

39:                                               ; preds = %32
  %40 = load ptr, ptr %7, align 8
  %41 = call i32 @strcmp(ptr noundef %40, ptr noundef @.str.10) #9
  %42 = icmp eq i32 %41, 0
  br i1 %42, label %43, label %56

43:                                               ; preds = %39
  %44 = load ptr, ptr %5, align 8
  %45 = getelementptr inbounds %struct.archive_write, ptr %44, i32 0, i32 0
  %46 = call ptr @archive_string_conversion_to_charset(ptr noundef %45, ptr noundef @.str.10, i32 noundef 0)
  %47 = load ptr, ptr %8, align 8
  %48 = getelementptr inbounds %struct.pax, ptr %47, i32 0, i32 8
  store ptr %46, ptr %48, align 8
  %49 = load ptr, ptr %8, align 8
  %50 = getelementptr inbounds %struct.pax, ptr %49, i32 0, i32 8
  %51 = load ptr, ptr %50, align 8
  %52 = icmp eq ptr %51, null
  br i1 %52, label %53, label %54

53:                                               ; preds = %43
  store i32 -30, ptr %9, align 4
  br label %55

54:                                               ; preds = %43
  store i32 0, ptr %9, align 4
  br label %55

55:                                               ; preds = %54, %53
  br label %59

56:                                               ; preds = %39
  %57 = load ptr, ptr %5, align 8
  %58 = getelementptr inbounds %struct.archive_write, ptr %57, i32 0, i32 0
  call void (ptr, i32, ptr, ...) @archive_set_error(ptr noundef %58, i32 noundef -1, ptr noundef @.str.11)
  br label %59

59:                                               ; preds = %56, %55
  br label %60

60:                                               ; preds = %59, %36
  br label %61

61:                                               ; preds = %60, %25
  %62 = load i32, ptr %9, align 4
  store i32 %62, ptr %4, align 4
  br label %136

63:                                               ; preds = %3
  %64 = load ptr, ptr %6, align 8
  %65 = call i32 @strcmp(ptr noundef %64, ptr noundef @.str.12) #9
  %66 = icmp eq i32 %65, 0
  br i1 %66, label %67, label %134

67:                                               ; preds = %63
  %68 = load ptr, ptr %7, align 8
  %69 = icmp eq ptr %68, null
  br i1 %69, label %76, label %70

70:                                               ; preds = %67
  %71 = load ptr, ptr %7, align 8
  %72 = getelementptr inbounds i8, ptr %71, i64 0
  %73 = load i8, ptr %72, align 1
  %74 = sext i8 %73 to i32
  %75 = icmp eq i32 %74, 0
  br i1 %75, label %76, label %79

76:                                               ; preds = %70, %67
  %77 = load ptr, ptr %5, align 8
  %78 = getelementptr inbounds %struct.archive_write, ptr %77, i32 0, i32 0
  call void (ptr, i32, ptr, ...) @archive_set_error(ptr noundef %78, i32 noundef -1, ptr noundef @.str.13)
  br label %132

79:                                               ; preds = %70
  %80 = load ptr, ptr %7, align 8
  %81 = call i32 @strcmp(ptr noundef %80, ptr noundef @.str.14) #9
  %82 = icmp eq i32 %81, 0
  br i1 %82, label %87, label %83

83:                                               ; preds = %79
  %84 = load ptr, ptr %7, align 8
  %85 = call i32 @strcmp(ptr noundef %84, ptr noundef @.str.15) #9
  %86 = icmp eq i32 %85, 0
  br i1 %86, label %87, label %92

87:                                               ; preds = %83, %79
  %88 = load ptr, ptr %8, align 8
  %89 = getelementptr inbounds %struct.pax, ptr %88, i32 0, i32 10
  %90 = load i32, ptr %89, align 4
  %91 = or i32 %90, 3
  store i32 %91, ptr %89, align 4
  store i32 0, ptr %9, align 4
  br label %131

92:                                               ; preds = %83
  %93 = load ptr, ptr %7, align 8
  %94 = call i32 @strcmp(ptr noundef %93, ptr noundef @.str.16) #9
  %95 = icmp eq i32 %94, 0
  br i1 %95, label %100, label %96

96:                                               ; preds = %92
  %97 = load ptr, ptr %7, align 8
  %98 = call i32 @strcmp(ptr noundef %97, ptr noundef @.str.17) #9
  %99 = icmp eq i32 %98, 0
  br i1 %99, label %100, label %109

100:                                              ; preds = %96, %92
  %101 = load ptr, ptr %8, align 8
  %102 = getelementptr inbounds %struct.pax, ptr %101, i32 0, i32 10
  %103 = load i32, ptr %102, align 4
  %104 = or i32 %103, 1
  store i32 %104, ptr %102, align 4
  %105 = load ptr, ptr %8, align 8
  %106 = getelementptr inbounds %struct.pax, ptr %105, i32 0, i32 10
  %107 = load i32, ptr %106, align 4
  %108 = and i32 %107, -3
  store i32 %108, ptr %106, align 4
  store i32 0, ptr %9, align 4
  br label %130

109:                                              ; preds = %96
  %110 = load ptr, ptr %7, align 8
  %111 = call i32 @strcmp(ptr noundef %110, ptr noundef @.str.18) #9
  %112 = icmp eq i32 %111, 0
  br i1 %112, label %117, label %113

113:                                              ; preds = %109
  %114 = load ptr, ptr %7, align 8
  %115 = call i32 @strcmp(ptr noundef %114, ptr noundef @.str.19) #9
  %116 = icmp eq i32 %115, 0
  br i1 %116, label %117, label %126

117:                                              ; preds = %113, %109
  %118 = load ptr, ptr %8, align 8
  %119 = getelementptr inbounds %struct.pax, ptr %118, i32 0, i32 10
  %120 = load i32, ptr %119, align 4
  %121 = or i32 %120, 2
  store i32 %121, ptr %119, align 4
  %122 = load ptr, ptr %8, align 8
  %123 = getelementptr inbounds %struct.pax, ptr %122, i32 0, i32 10
  %124 = load i32, ptr %123, align 4
  %125 = and i32 %124, -2
  store i32 %125, ptr %123, align 4
  store i32 0, ptr %9, align 4
  br label %129

126:                                              ; preds = %113
  %127 = load ptr, ptr %5, align 8
  %128 = getelementptr inbounds %struct.archive_write, ptr %127, i32 0, i32 0
  call void (ptr, i32, ptr, ...) @archive_set_error(ptr noundef %128, i32 noundef -1, ptr noundef @.str.20)
  br label %129

129:                                              ; preds = %126, %117
  br label %130

130:                                              ; preds = %129, %100
  br label %131

131:                                              ; preds = %130, %87
  br label %132

132:                                              ; preds = %131, %76
  %133 = load i32, ptr %9, align 4
  store i32 %133, ptr %4, align 4
  br label %136

134:                                              ; preds = %63
  br label %135

135:                                              ; preds = %134
  store i32 -20, ptr %4, align 4
  br label %136

136:                                              ; preds = %135, %132, %61
  %137 = load i32, ptr %4, align 4
  ret i32 %137
}