; Function Attrs: nounwind uwtable
define internal range(i32 -30, 1) i32 @archive_write_pax_options(ptr noundef %0, ptr noundef readonly captures(none) %1, ptr noundef readonly %2) #0 {
  %4 = getelementptr inbounds nuw i8, ptr %0, i64 248
  %5 = load ptr, ptr %4, align 8
  %6 = tail call i32 @strcmp(ptr noundef nonnull dereferenceable(1) %1, ptr noundef nonnull dereferenceable(11) @.str.6) #17
  %7 = icmp eq i32 %6, 0
  br i1 %7, label %8, label %30

8:                                                ; preds = %3
  %9 = icmp eq ptr %2, null
  br i1 %9, label %13, label %10

10:                                               ; preds = %8
  %11 = load i8, ptr %2, align 1
  %12 = icmp eq i8 %11, 0
  br i1 %12, label %13, label %14

13:                                               ; preds = %10, %8
  tail call void (ptr, i32, ptr, ...) @archive_set_error(ptr noundef nonnull %0, i32 noundef -1, ptr noundef nonnull @.str.7) #15
  br label %72

14:                                               ; preds = %10
  %15 = tail call i32 @strcmp(ptr noundef nonnull dereferenceable(1) %2, ptr noundef nonnull dereferenceable(7) @.str.8) #17
  %16 = icmp eq i32 %15, 0
  br i1 %16, label %20, label %17

17:                                               ; preds = %14
  %18 = tail call i32 @strcmp(ptr noundef nonnull dereferenceable(1) %2, ptr noundef nonnull dereferenceable(7) @.str.9) #17
  %19 = icmp eq i32 %18, 0
  br i1 %19, label %20, label %22

20:                                               ; preds = %17, %14
  %21 = getelementptr inbounds nuw i8, ptr %5, i64 120
  store i32 1, ptr %21, align 8
  br label %72

22:                                               ; preds = %17
  %23 = tail call i32 @strcmp(ptr noundef nonnull dereferenceable(1) %2, ptr noundef nonnull dereferenceable(6) @.str.10) #17
  %24 = icmp eq i32 %23, 0
  br i1 %24, label %25, label %29

25:                                               ; preds = %22
  %26 = tail call ptr @archive_string_conversion_to_charset(ptr noundef nonnull %0, ptr noundef nonnull @.str.10, i32 noundef 0) #15
  %27 = getelementptr inbounds nuw i8, ptr %5, i64 112
  store ptr %26, ptr %27, align 8
  %28 = icmp eq ptr %26, null
  %. = select i1 %28, i32 -30, i32 0
  br label %72

29:                                               ; preds = %22
  tail call void (ptr, i32, ptr, ...) @archive_set_error(ptr noundef nonnull %0, i32 noundef -1, ptr noundef nonnull @.str.11) #15
  br label %72

30:                                               ; preds = %3
  %31 = tail call i32 @strcmp(ptr noundef nonnull dereferenceable(1) %1, ptr noundef nonnull dereferenceable(12) @.str.12) #17
  %32 = icmp eq i32 %31, 0
  br i1 %32, label %33, label %72

33:                                               ; preds = %30
  %34 = icmp eq ptr %2, null
  br i1 %34, label %38, label %35

35:                                               ; preds = %33
  %36 = load i8, ptr %2, align 1
  %37 = icmp eq i8 %36, 0
  br i1 %37, label %38, label %39

38:                                               ; preds = %35, %33
  tail call void (ptr, i32, ptr, ...) @archive_set_error(ptr noundef nonnull %0, i32 noundef -1, ptr noundef nonnull @.str.13) #15
  br label %72

39:                                               ; preds = %35
  %40 = tail call i32 @strcmp(ptr noundef nonnull dereferenceable(1) %2, ptr noundef nonnull dereferenceable(4) @.str.14) #17
  %41 = icmp eq i32 %40, 0
  br i1 %41, label %45, label %42

42:                                               ; preds = %39
  %43 = tail call i32 @strcmp(ptr noundef nonnull dereferenceable(1) %2, ptr noundef nonnull dereferenceable(4) @.str.15) #17
  %44 = icmp eq i32 %43, 0
  br i1 %44, label %45, label %49

45:                                               ; preds = %42, %39
  %46 = getelementptr inbounds nuw i8, ptr %5, i64 124
  %47 = load i32, ptr %46, align 4
  %48 = or i32 %47, 3
  store i32 %48, ptr %46, align 4
  br label %72

49:                                               ; preds = %42
  %50 = tail call i32 @strcmp(ptr noundef nonnull dereferenceable(1) %2, ptr noundef nonnull dereferenceable(7) @.str.16) #17
  %51 = icmp eq i32 %50, 0
  br i1 %51, label %55, label %52

52:                                               ; preds = %49
  %53 = tail call i32 @strcmp(ptr noundef nonnull dereferenceable(1) %2, ptr noundef nonnull dereferenceable(7) @.str.17) #17
  %54 = icmp eq i32 %53, 0
  br i1 %54, label %55, label %60

55:                                               ; preds = %52, %49
  %56 = getelementptr inbounds nuw i8, ptr %5, i64 124
  %57 = load i32, ptr %56, align 4
  %58 = and i32 %57, -4
  %59 = or disjoint i32 %58, 1
  store i32 %59, ptr %56, align 4
  br label %72

60:                                               ; preds = %52
  %61 = tail call i32 @strcmp(ptr noundef nonnull dereferenceable(1) %2, ptr noundef nonnull dereferenceable(11) @.str.18) #17
  %62 = icmp eq i32 %61, 0
  br i1 %62, label %66, label %63

63:                                               ; preds = %60
  %64 = tail call i32 @strcmp(ptr noundef nonnull dereferenceable(1) %2, ptr noundef nonnull dereferenceable(11) @.str.19) #17
  %65 = icmp eq i32 %64, 0
  br i1 %65, label %66, label %71

66:                                               ; preds = %63, %60
  %67 = getelementptr inbounds nuw i8, ptr %5, i64 124
  %68 = load i32, ptr %67, align 4
  %69 = and i32 %68, -4
  %70 = or disjoint i32 %69, 2
  store i32 %70, ptr %67, align 4
  br label %72

71:                                               ; preds = %63
  tail call void (ptr, i32, ptr, ...) @archive_set_error(ptr noundef nonnull %0, i32 noundef -1, ptr noundef nonnull @.str.20) #15
  br label %72

72:                                               ; preds = %30, %38, %55, %71, %66, %45, %13, %29, %20, %25
  %.031 = phi i32 [ -25, %13 ], [ 0, %20 ], [ -25, %29 ], [ %., %25 ], [ -25, %38 ], [ 0, %45 ], [ 0, %55 ], [ 0, %66 ], [ -25, %71 ], [ -20, %30 ]
  ret i32 %.031
}